target datalayout = "e-m:e-p270:32:32-p271:32:32-p272:64:64-i64:64-i128:128-f80:128-n8:16:32:64-S128"
target triple = "x86_64-pc-linux-gnu"

%struct._zval_struct = type { %union._zend_value, %union.anon.3, %union.anon.6 }
%union._zend_value = type { i64 }
%union.anon.3 = type { i32 }
%union.anon.6 = type { i32 }
%struct._php_stream_ops = type { ptr, ptr, ptr, ptr, ptr, ptr, ptr, ptr, ptr }
%struct._php_stream = type { ptr, ptr, %struct._php_stream_filter_chain, %struct._php_stream_filter_chain, ptr, ptr, %struct._zval_struct, i16, [16 x i8], i32, ptr, ptr, ptr, ptr, i64, ptr, i64, i64, i64, i64, ptr }
%struct._php_stream_filter_chain = type { ptr, ptr, ptr }
%struct.__va_list_tag = type { i32, i32, ptr, ptr }

@.str.1 = private unnamed_addr constant [23 x i8] c"Stream is not writable\00", align 1

; Function Attrs: nounwind uwtable
define i64 @_php_stream_write(ptr noundef %0, ptr noundef %1, i64 noundef %2) #0 {
  %4 = alloca i64, align 8
  %5 = alloca ptr, align 8
  %6 = alloca ptr, align 8
  %7 = alloca i64, align 8
  %8 = alloca i64, align 8
  store ptr %0, ptr %5, align 8
  store ptr %1, ptr %6, align 8
  store i64 %2, ptr %7, align 8
  %9 = load i64, ptr %7, align 8
  %10 = icmp eq i64 %9, 0
  br i1 %10, label %11, label %12

11:                                               ; preds = %3
  store i64 0, ptr %4, align 8
  br label %48

12:                                               ; preds = %3
  %13 = load ptr, ptr %6, align 8
  %14 = icmp ne ptr %13, null
  call void @llvm.assume(i1 %14)
  %15 = load ptr, ptr %5, align 8
  %16 = getelementptr inbounds %struct._php_stream, ptr %15, i32 0, i32 0
  %17 = load ptr, ptr %16, align 8
  %18 = getelementptr inbounds %struct._php_stream_ops, ptr %17, i32 0, i32 0
  %19 = load ptr, ptr %18, align 8
  %20 = icmp eq ptr %19, null
  br i1 %20, label %21, label %22

21:                                               ; preds = %12
  call void (ptr, i32, ptr, ...) @php_error_docref(ptr noundef null, i32 noundef 8, ptr noundef @.str.1)
  store i64 -1, ptr %4, align 8
  br label %48

22:                                               ; preds = %12
  %23 = load ptr, ptr %5, align 8
  %24 = getelementptr inbounds %struct._php_stream, ptr %23, i32 0, i32 3
  %25 = getelementptr inbounds %struct._php_stream_filter_chain, ptr %24, i32 0, i32 0
  %26 = load ptr, ptr %25, align 8
  %27 = icmp ne ptr %26, null
  br i1 %27, label %28, label %33

28:                                               ; preds = %22
  %29 = load ptr, ptr %5, align 8
  %30 = load ptr, ptr %6, align 8
  %31 = load i64, ptr %7, align 8
  %32 = call i64 @_php_stream_write_filtered(ptr noundef %29, ptr noundef %30, i64 noundef %31, i32 noundef 0)
  store i64 %32, ptr %8, align 8
  br label %38

33:                                               ; preds = %22
  %34 = load ptr, ptr %5, align 8
  %35 = load ptr, ptr %6, align 8
  %36 = load i64, ptr %7, align 8
  %37 = call i64 @_php_stream_write_buffer(ptr noundef %34, ptr noundef %35, i64 noundef %36)
  store i64 %37, ptr %8, align 8
  br label %38

38:                                               ; preds = %33, %28
  %39 = load i64, ptr %8, align 8
  %40 = icmp ne i64 %39, 0
  br i1 %40, label %41, label %46

41:                                               ; preds = %38
  %42 = load ptr, ptr %5, align 8
  %43 = getelementptr inbounds %struct._php_stream, ptr %42, i32 0, i32 9
  %44 = load i32, ptr %43, align 4
  %45 = or i32 %44, -2147483648
  store i32 %45, ptr %43, align 4
  br label %46

46:                                               ; preds = %41, %38
  %47 = load i64, ptr %8, align 8
  store i64 %47, ptr %4, align 8
  br label %48

48:                                               ; preds = %46, %21, %11
  %49 = load i64, ptr %4, align 8
  ret i64 %49
}

; Function Attrs: nounwind uwtable
define i64 @_php_stream_printf(ptr noundef %0, ptr noundef %1, ...) #0 {
  %3 = alloca i64, align 8
  %4 = alloca ptr, align 8
  %5 = alloca ptr, align 8
  %6 = alloca i64, align 8
  %7 = alloca ptr, align 8
  %8 = alloca [1 x %struct.__va_list_tag], align 16
  store ptr %0, ptr %4, align 8
  store ptr %1, ptr %5, align 8
  %9 = getelementptr inbounds [1 x %struct.__va_list_tag], ptr %8, i64 0, i64 0
  call void @llvm.va_start(ptr %9)
  %10 = load ptr, ptr %5, align 8
  %11 = getelementptr inbounds [1 x %struct.__va_list_tag], ptr %8, i64 0, i64 0
  %12 = call i64 @zend_vspprintf(ptr noundef %7, i64 noundef 0, ptr noundef %10, ptr noundef %11)
  store i64 %12, ptr %6, align 8
  %13 = getelementptr inbounds [1 x %struct.__va_list_tag], ptr %8, i64 0, i64 0
  call void @llvm.va_end(ptr %13)
  %14 = load ptr, ptr %7, align 8
  %15 = icmp ne ptr %14, null
  br i1 %15, label %17, label %16

16:                                               ; preds = %2
  store i64 -1, ptr %3, align 8
  br label %24

17:                                               ; preds = %2
  %18 = load ptr, ptr %4, align 8
  %19 = load ptr, ptr %7, align 8
  %20 = load i64, ptr %6, align 8
  %21 = call i64 @_php_stream_write(ptr noundef %18, ptr noundef %19, i64 noundef %20)
  store i64 %21, ptr %6, align 8
  %22 = load ptr, ptr %7, align 8
  call void @_efree(ptr noundef %22)
  %23 = load i64, ptr %6, align 8
  store i64 %23, ptr %3, align 8
  br label %24

24:                                               ; preds = %17, %16
  %25 = load i64, ptr %3, align 8
  ret i64 %25
}