; Function Attrs: nounwind uwtable
define i64 @_php_stream_printf(ptr noundef %0, ptr noundef %1, ...) local_unnamed_addr #2 {
  %3 = alloca ptr, align 8
  %4 = alloca [1 x %struct.__va_list_tag], align 16
  call void @llvm.va_start(ptr nonnull %4)
  %5 = call i64 @zend_vspprintf(ptr noundef nonnull %3, i64 noundef 0, ptr noundef %1, ptr noundef nonnull %4) #27
  call void @llvm.va_end(ptr nonnull %4)
  %6 = load ptr, ptr %3, align 8
  %.not = icmp eq ptr %6, null
  br i1 %.not, label %27, label %7

7:                                                ; preds = %2
  %8 = icmp eq i64 %5, 0
  br i1 %8, label %_php_stream_write.exit, label %9

9:                                                ; preds = %7
  %10 = load ptr, ptr %0, align 8
  %11 = load ptr, ptr %10, align 8
  %12 = icmp eq ptr %11, null
  br i1 %12, label %13, label %14

13:                                               ; preds = %9
  call void (ptr, i32, ptr, ...) @php_error_docref(ptr noundef null, i32 noundef 8, ptr noundef nonnull @.str.1) #27
  br label %_php_stream_write.exit

14:                                               ; preds = %9
  %15 = getelementptr inbounds i8, ptr %0, i64 40
  %16 = load ptr, ptr %15, align 8
  %.not.i = icmp eq ptr %16, null
  br i1 %.not.i, label %19, label %17

17:                                               ; preds = %14
  %18 = call fastcc i64 @_php_stream_write_filtered(ptr noundef nonnull %0, ptr noundef nonnull %6, i64 noundef %5, i32 noundef 0)
  br label %21

19:                                               ; preds = %14
  %20 = call fastcc i64 @_php_stream_write_buffer(ptr noundef nonnull %0, ptr noundef nonnull %6, i64 noundef %5)
  br label %21

21:                                               ; preds = %19, %17
  %.0.i = phi i64 [ %18, %17 ], [ %20, %19 ]
  %.not15.i = icmp eq i64 %.0.i, 0
  br i1 %.not15.i, label %_php_stream_write.exit, label %22

22:                                               ; preds = %21
  %23 = getelementptr inbounds i8, ptr %0, i64 116
  %24 = load i32, ptr %23, align 4
  %25 = or i32 %24, -2147483648
  store i32 %25, ptr %23, align 4
  br label %_php_stream_write.exit

_php_stream_write.exit:                           ; preds = %7, %13, %21, %22
  %.013.i = phi i64 [ -1, %13 ], [ 0, %7 ], [ %.0.i, %22 ], [ 0, %21 ]
  %26 = load ptr, ptr %3, align 8
  call void @_efree(ptr noundef %26) #27
  br label %27

27:                                               ; preds = %2, %_php_stream_write.exit
  %.0 = phi i64 [ %.013.i, %_php_stream_write.exit ], [ -1, %2 ]
  ret i64 %.0
}